target datalayout = "e-m:e-p270:32:32-p271:32:32-p272:64:64-i64:64-i128:128-f80:128-n8:16:32:64-S128"
target triple = "x86_64-pc-linux-gnu"

%"class.std::filesystem::__cxx11::path" = type { %"class.std::__cxx11::basic_string", %"struct.std::filesystem::__cxx11::path::_List" }
%"class.std::__cxx11::basic_string" = type { %"struct.std::__cxx11::basic_string<char>::_Alloc_hider", i64, %union.anon }
%"struct.std::__cxx11::basic_string<char>::_Alloc_hider" = type { ptr }
%union.anon = type { i64, [8 x i8] }
%"struct.std::filesystem::__cxx11::path::_List" = type { %"class.std::unique_ptr" }
%"class.std::unique_ptr" = type { %"struct.std::__uniq_ptr_data" }
%"struct.std::__uniq_ptr_data" = type { %"class.std::__uniq_ptr_impl" }
%"class.std::__uniq_ptr_impl" = type { %"class.std::tuple" }
%"class.std::tuple" = type { %"struct.std::_Tuple_impl" }
%"struct.std::_Tuple_impl" = type { %"struct.std::_Head_base.1" }
%"struct.std::_Head_base.1" = type { ptr }
%struct.gmx_fft = type { [2 x [2 x [2 x ptr]]], i32, i32 }

@.str = private unnamed_addr constant [123 x i8] c"generated/home/dtcxzyw/WorkSpace/Projects/compilers/llvm-opt-benchmark/bench/gromacs/gromacs/src/gromacs/fft/fft_fftw3.cpp\00", align 1
@.str.5 = private unnamed_addr constant [43 x i8] c"FFT plan mismatch - bad plan or direction.\00", align 1

; Function Attrs: mustprogress uwtable
define noundef i32 @_Z15gmx_fft_1d_realP7gmx_fft17gmx_fft_directionPvS2_(ptr noundef %0, i32 noundef %1, ptr noundef %2, ptr noundef %3) #0 personality ptr @__gxx_personality_v0 {
  %5 = alloca ptr, align 8
  %6 = alloca i32, align 4
  %7 = alloca ptr, align 8
  %8 = alloca ptr, align 8
  %9 = alloca i8, align 1
  %10 = alloca i8, align 1
  %11 = alloca i8, align 1
  %12 = alloca %"class.std::filesystem::__cxx11::path", align 8
  %13 = alloca ptr, align 8
  %14 = alloca i32, align 4
  store ptr %0, ptr %5, align 8, !tbaa !12
  store i32 %1, ptr %6, align 4, !tbaa !92
  store ptr %2, ptr %7, align 8, !tbaa !85
  store ptr %3, ptr %8, align 8, !tbaa !85
  call void @llvm.lifetime.start.p0(i64 1, ptr %9) #13
  %15 = load ptr, ptr %7, align 8, !tbaa !85
  %16 = ptrtoint ptr %15 to i64
  %17 = load ptr, ptr %8, align 8, !tbaa !85
  %18 = ptrtoint ptr %17 to i64
  %19 = or i64 %16, %18
  %20 = and i64 %19, 15
  %21 = icmp eq i64 %20, 0
  %22 = zext i1 %21 to i8
  store i8 %22, ptr %9, align 1, !tbaa !94
  call void @llvm.lifetime.start.p0(i64 1, ptr %10) #13
  %23 = load ptr, ptr %7, align 8, !tbaa !85
  %24 = load ptr, ptr %8, align 8, !tbaa !85
  %25 = icmp eq ptr %23, %24
  %26 = zext i1 %25 to i8
  store i8 %26, ptr %10, align 1, !tbaa !94
  call void @llvm.lifetime.start.p0(i64 1, ptr %11) #13
  %27 = load i32, ptr %6, align 4, !tbaa !92
  %28 = icmp eq i32 %27, 2
  %29 = zext i1 %28 to i8
  store i8 %29, ptr %11, align 1, !tbaa !94
  %30 = load ptr, ptr %5, align 8, !tbaa !12
  %31 = getelementptr inbounds nuw %struct.gmx_fft, ptr %30, i32 0, i32 1
  %32 = load i32, ptr %31, align 8, !tbaa !26
  %33 = icmp ne i32 %32, 1
  br i1 %33, label %45, label %34

34:                                               ; preds = %4
  %35 = load ptr, ptr %5, align 8, !tbaa !12
  %36 = getelementptr inbounds nuw %struct.gmx_fft, ptr %35, i32 0, i32 2
  %37 = load i32, ptr %36, align 4, !tbaa !28
  %38 = icmp ne i32 %37, 1
  br i1 %38, label %45, label %39

39:                                               ; preds = %34
  %40 = load i32, ptr %6, align 4, !tbaa !92
  %41 = icmp ne i32 %40, 2
  br i1 %41, label %42, label %51

42:                                               ; preds = %39
  %43 = load i32, ptr %6, align 4, !tbaa !92
  %44 = icmp ne i32 %43, 3
  br i1 %44, label %45, label %51

45:                                               ; preds = %42, %34, %4
  call void @llvm.lifetime.start.p0(i64 40, ptr %12) #13
  call void @_ZNSt10filesystem7__cxx114pathC2IA123_cS1_EERKT_NS1_6formatE(ptr noundef nonnull align 8 dereferenceable(40) %12, ptr noundef nonnull align 1 dereferenceable(123) @.str, i8 noundef zeroext 2)
  invoke void (i32, ptr, i32, ptr, ...) @_Z9gmx_fataliRKNSt10filesystem7__cxx114pathEiPKcz(i32 noundef 0, ptr noundef nonnull align 8 dereferenceable(40) %12, i32 noundef 576, ptr noundef @.str.5) #14
          to label %46 unwind label %47

46:                                               ; preds = %45
  unreachable

47:                                               ; preds = %45
  %48 = landingpad { ptr, i32 }
          cleanup
  %49 = extractvalue { ptr, i32 } %48, 0
  store ptr %49, ptr %13, align 8
  %50 = extractvalue { ptr, i32 } %48, 1
  store i32 %50, ptr %14, align 4
  call void @_ZNSt10filesystem7__cxx114pathD2Ev(ptr noundef nonnull align 8 dereferenceable(40) %12) #13
  call void @llvm.lifetime.end.p0(i64 40, ptr %12) #13
  call void @llvm.lifetime.end.p0(i64 1, ptr %11) #13
  call void @llvm.lifetime.end.p0(i64 1, ptr %10) #13
  call void @llvm.lifetime.end.p0(i64 1, ptr %9) #13
  br label %91

51:                                               ; preds = %42, %39
  %52 = load i8, ptr %11, align 1, !tbaa !94, !range !96, !noundef !97
  %53 = trunc i8 %52 to i1
  br i1 %53, label %54, label %72

54:                                               ; preds = %51
  %55 = load ptr, ptr %5, align 8, !tbaa !12
  %56 = getelementptr inbounds nuw %struct.gmx_fft, ptr %55, i32 0, i32 0
  %57 = load i8, ptr %9, align 1, !tbaa !94, !range !96, !noundef !97
  %58 = trunc i8 %57 to i1
  %59 = zext i1 %58 to i64
  %60 = getelementptr inbounds nuw [2 x [2 x [2 x ptr]]], ptr %56, i64 0, i64 %59
  %61 = load i8, ptr %10, align 1, !tbaa !94, !range !96, !noundef !97
  %62 = trunc i8 %61 to i1
  %63 = zext i1 %62 to i64
  %64 = getelementptr inbounds nuw [2 x [2 x ptr]], ptr %60, i64 0, i64 %63
  %65 = load i8, ptr %11, align 1, !tbaa !94, !range !96, !noundef !97
  %66 = trunc i8 %65 to i1
  %67 = zext i1 %66 to i64
  %68 = getelementptr inbounds nuw [2 x ptr], ptr %64, i64 0, i64 %67
  %69 = load ptr, ptr %68, align 8, !tbaa !20
  %70 = load ptr, ptr %7, align 8, !tbaa !85
  %71 = load ptr, ptr %8, align 8, !tbaa !85
  call void @fftwf_execute_dft_r2c(ptr noundef %69, ptr noundef %70, ptr noundef %71)
  br label %90

72:                                               ; preds = %51
  %73 = load ptr, ptr %5, align 8, !tbaa !12
  %74 = getelementptr inbounds nuw %struct.gmx_fft, ptr %73, i32 0, i32 0
  %75 = load i8, ptr %9, align 1, !tbaa !94, !range !96, !noundef !97
  %76 = trunc i8 %75 to i1
  %77 = zext i1 %76 to i64
  %78 = getelementptr inbounds nuw [2 x [2 x [2 x ptr]]], ptr %74, i64 0, i64 %77
  %79 = load i8, ptr %10, align 1, !tbaa !94, !range !96, !noundef !97
  %80 = trunc i8 %79 to i1
  %81 = zext i1 %80 to i64
  %82 = getelementptr inbounds nuw [2 x [2 x ptr]], ptr %78, i64 0, i64 %81
  %83 = load i8, ptr %11, align 1, !tbaa !94, !range !96, !noundef !97
  %84 = trunc i8 %83 to i1
  %85 = zext i1 %84 to i64
  %86 = getelementptr inbounds nuw [2 x ptr], ptr %82, i64 0, i64 %85
  %87 = load ptr, ptr %86, align 8, !tbaa !20
  %88 = load ptr, ptr %7, align 8, !tbaa !85
  %89 = load ptr, ptr %8, align 8, !tbaa !85
  call void @fftwf_execute_dft_c2r(ptr noundef %87, ptr noundef %88, ptr noundef %89)
  br label %90

90:                                               ; preds = %72, %54
  call void @llvm.lifetime.end.p0(i64 1, ptr %11) #13
  call void @llvm.lifetime.end.p0(i64 1, ptr %10) #13
  call void @llvm.lifetime.end.p0(i64 1, ptr %9) #13
  ret i32 0

91:                                               ; preds = %47
  %92 = load ptr, ptr %13, align 8
  %93 = load i32, ptr %14, align 4
  %94 = insertvalue { ptr, i32 } poison, ptr %92, 0
  %95 = insertvalue { ptr, i32 } %94, i32 %93, 1
  resume { ptr, i32 } %95
}